Certificate:
    Data:
        Version: 3 (0x2)
        Serial Number:
            25:fd:19:f8:c9:7c:1f:5c:64:a2:56:82:ed:0e:26:0c:c1:28:15:9f
        Signature Algorithm: sha256WithRSAEncryption
        Issuer: C=US, ST=Nevada, O=github.com/lib/pq, CN=postgres
        Validity
            Not Before: Oct 22 08:25:30 2024 GMT
            Not After : Oct 20 08:25:30 2034 GMT
        Subject: C=US, ST=Nevada, O=github.com/lib/pq, CN=postgres
        Subject Public Key Info:
            Public Key Algorithm: rsaEncryption
                Public-Key: (2048 bit)
                Modulus:
                    00:a6:d7:65:14:3f:5b:51:12:93:b9:a1:d6:09:15:
                    f4:04:bf:cf:5f:28:1b:11:d0:a7:d3:c1:89:45:a4:
                    47:d5:4b:8e:d6:b3:63:ef:c5:37:ba:53:0b:58:1c:
                    35:75:22:1e:14:f9:99:ae:6c:db:d0:5f:95:36:54:
                    c2:23:ac:9f:7c:99:d7:89:aa:f6:ae:80:d7:8e:ef:
                    80:3e:4e:a9:3a:62:66:1b:89:26:77:75:7d:98:1b:
                    40:fc:0c:31:53:e4:d1:1c:49:8e:9c:42:91:61:44:
                    93:8e:73:dc:02:20:a6:10:15:c6:65:e3:be:ca:70:
                    67:d3:95:c6:6b:e9:c9:a3:67:10:b7:90:b7:06:de:
                    c0:02:ae:8e:3e:00:32:f4:c8:29:0c:ac:04:0a:80:
                    36:05:1e:18:dc:f2:99:81:c3:54:f8:93:46:89:87:
                    1e:ad:5d:21:9a:42:6d:5b:b8:f8:7a:52:ff:b7:cd:
                    04:80:6a:48:61:69:36:ad:6a:e2:cd:2e:2b:da:a0:
                    25:d7:98:e1:da:be:9e:a4:3e:03:23:27:92:f0:22:
                    ef:bc:49:d5:44:2a:0f:83:90:e8:98:21:8c:a6:ca:
                    d1:93:84:30:6b:f8:f4:8e:0e:24:35:f9:e7:27:aa:
                    b8:d3:1b:3a:70:5f:95:98:85:b4:25:c9:e7:5e:28:
                    7c:ff
                Exponent: 65537 (0x10001)
        X509v3 extensions:
            X509v3 Subject Key Identifier: 
                05:63:E5:C2:0E:7E:1A:FD:7A:79:52:37:06:57:7A:D4:C6:E8:7A:50
            X509v3 Authority Key Identifier: 
                6B:2E:E5:A2:5F:B3:C4:A0:1D:AF:1F:F4:71:E7:56:1F:06:3B:5F:7B
    Signature Algorithm: sha256WithRSAEncryption
    Signature Value:
        06:40:5b:d0:d0:75:a9:e8:c9:d0:43:5e:85:fb:94:ad:06:3e:
        74:87:e7:e6:15:a1:ee:d0:93:b3:ee:6d:62:a3:8a:7f:5e:6e:
        2d:cd:3f:ab:ed:7a:d4:3b:74:18:56:8e:c2:a5:44:23:d1:8a:
        1b:51:38:c5:9b:1c:94:a2:18:ed:a5:06:b8:2e:ba:0b:ad:34:
        40:c8:8c:ed:00:33:fb:c6:3e:37:cf:10:ff:22:c4:d4:21:38:
        0d:75:06:61:38:4e:df:3f:8b:30:f2:3c:96:4e:a4:79:5d:f3:
        29:21:39:9d:55:73:4f:d1:34:02:22:7e:30:87:c1:65:a8:84:
        3e:c6:a8:e9:9c:56:e0:71:32:fe:15:d2:e9:6a:38:4e:86:5c:
        25:e2:8c:52:73:68:90:d4:a3:9c:3f:86:d9:a0:a5:6d:e8:89:
        ce:ce:6a:6d:4a:d8:a7:6d:ac:08:99:fa:eb:1c:78:e0:39:ef:
        e1:a3:29:3d:03:e4:3a:72:48:5f:48:fd:46:0a:63:fb:73:55:
        e2:c7:74:f9:d1:b6:41:48:9d:25:e6:d9:ca:3d:95:b1:c3:9b:
        fa:57:cc:03:1b:52:c8:c2:45:67:ce:26:7c:6f:50:be:96:5b:
        85:4a:fa:c9:82:03:ed:b5:ed:91:0c:34:03:4d:62:e7:54:4f:
        cc:1c:f2:ba
-----BEGIN CERTIFICATE-----
MIIDajCCAlKgAwIBAgIUJf0Z+Ml8H1xkolaC7Q4mDMEoFZ8wDQYJKoZIhvcNAQEL
BQAwTTELMAkGA1UEBhMCVVMxDzANBgNVBAgMBk5ldmFkYTEaMBgGA1UECgwRZ2l0
aHViLmNvbS9saWIvcHExETAPBgNVBAMMCHBvc3RncmVzMB4XDTI0MTAyMjA4MjUz
MFoXDTM0MTAyMDA4MjUzMFowTTELMAkGA1UEBhMCVVMxDzANBgNVBAgMBk5ldmFk
YTEaMBgGA1UECgwRZ2l0aHViLmNvbS9saWIvcHExETAPBgNVBAMMCHBvc3RncmVz
MIIBIjANBgkqhkiG9w0BAQEFAAOCAQ8AMIIBCgKCAQEAptdlFD9bURKTuaHWCRX0
BL/PXygbEdCn08GJRaRH1UuO1rNj78U3ulMLWBw1dSIeFPmZrmzb0F+VNlTCI6yf
fJnXiar2roDXju+APk6pOmJmG4kmd3V9mBtA/AwxU+TRHEmOnEKRYUSTjnPcAiCm
EBXGZeO+ynBn05XGa+nJo2cQt5C3Bt7AAq6OPgAy9MgpDKwECoA2BR4Y3PKZgcNU
+JNGiYcerV0hmkJtW7j4elL/t80EgGpIYWk2rWrizS4r2qAl15jh2r6epD4DIyeS
8CLvvEnVRCoPg5DomCGMpsrRk4Qwa/j0jg4kNfnnJ6q40xs6cF+VmIW0JcnnXih8
/wIDAQABo0IwQDAdBgNVHQ4EFgQUBWPlwg5+Gv16eVI3Bld61MboelAwHwYDVR0j
BBgwFoAUay7lol+zxKAdrx/0cedWHwY7X3swDQYJKoZIhvcNAQELBQADggEBAAZA
W9DQdanoydBDXoX7lK0GPnSH5+YVoe7Qk7PubWKjin9ebi3NP6vtetQ7dBhWjsKl
RCPRihtROMWbHJSiGO2lBrguugutNEDIjO0AM/vGPjfPEP8ixNQhOA11BmE4Tt8/
izDyPJZOpHld8ykhOZ1Vc0/RNAIifjCHwWWohD7GqOmcVuBxMv4V0ulqOE6GXCXi
jFJzaJDUo5w/htmgpW3oic7Oam1K2KdtrAiZ+usceOA57+GjKT0D5DpySF9I/UYK
Y/tzVeLHdPnRtkFInSXm2co9lbHDm/pXzAMbUsjCRWfOJnxvUL6WW4VK+smCA+21
7ZEMNANNYudUT8wc8ro=
-----END CERTIFICATE-----
